target datalayout = "e-m:e-p270:32:32-p271:32:32-p272:64:64-i64:64-i128:128-f80:128-n8:16:32:64-S128"
target triple = "x86_64-pc-linux-gnu"

@H5ES_init_g = global i8 0, align 1
@H5_libterm_g = external global i8, align 1
@.str = private unnamed_addr constant [101 x i8] c"generated/home/dtcxzyw/WorkSpace/Projects/compilers/llvm-opt-benchmark/bench/hdf5/hdf5/src/H5ESint.c\00", align 1
@H5E_EVENTSET_g = external global i64, align 8
@__func__.H5ES__close_cb = private unnamed_addr constant [15 x i8] c"H5ES__close_cb\00", align 1
@H5E_CLOSEERROR_g = external global i64, align 8
@.str.12 = private unnamed_addr constant [26 x i8] c"unable to close event set\00", align 1

; Function Attrs: nounwind uwtable
define internal i32 @H5ES__close_cb(ptr noundef %0, ptr noundef %1) #0 {
  %3 = alloca ptr, align 8
  %4 = alloca ptr, align 8
  %5 = alloca ptr, align 8
  %6 = alloca i32, align 4
  %7 = alloca i8, align 1
  store ptr %0, ptr %3, align 8, !tbaa !18
  store ptr %1, ptr %4, align 8, !tbaa !18
  call void @llvm.lifetime.start.p0(i64 8, ptr %5) #5
  %8 = load ptr, ptr %3, align 8, !tbaa !18
  store ptr %8, ptr %5, align 8, !tbaa !13
  call void @llvm.lifetime.start.p0(i64 4, ptr %6) #5
  store i32 0, ptr %6, align 4, !tbaa !3
  call void @llvm.lifetime.start.p0(i64 1, ptr %7) #5
  store i8 0, ptr %7, align 1, !tbaa !7
  %9 = load i8, ptr @H5ES_init_g, align 1, !tbaa !7, !range !9, !noundef !10
  %10 = trunc i8 %9 to i1
  br i1 %10, label %15, label %11

11:                                               ; preds = %2
  %12 = load i8, ptr @H5_libterm_g, align 1, !tbaa !7, !range !9, !noundef !10
  %13 = trunc i8 %12 to i1
  %14 = xor i1 %13, true
  br label %15

15:                                               ; preds = %11, %2
  %16 = phi i1 [ true, %2 ], [ %14, %11 ]
  %17 = xor i1 %16, true
  %18 = xor i1 %17, true
  %19 = zext i1 %18 to i32
  %20 = sext i32 %19 to i64
  %21 = call i64 @llvm.expect.i64(i64 %20, i64 1)
  %22 = icmp ne i64 %21, 0
  br i1 %22, label %23, label %48

23:                                               ; preds = %15
  %24 = load ptr, ptr %5, align 8, !tbaa !13
  %25 = call i32 @H5ES__close(ptr noundef %24)
  %26 = icmp slt i32 %25, 0
  br i1 %26, label %27, label %46

27:                                               ; preds = %23
  br label %28

28:                                               ; preds = %27
  br label %29

29:                                               ; preds = %28
  br label %30

30:                                               ; preds = %29
  %31 = load i64, ptr @H5E_EVENTSET_g, align 8, !tbaa !11
  %32 = load i64, ptr @H5E_CLOSEERROR_g, align 8, !tbaa !11
  %33 = call i32 (ptr, ptr, i32, i64, i64, ptr, ...) @H5E_printf_stack(ptr noundef @.str, ptr noundef @__func__.H5ES__close_cb, i32 noundef 206, i64 noundef %31, i64 noundef %32, ptr noundef @.str.12)
  br label %34

34:                                               ; preds = %30
  br label %35

35:                                               ; preds = %34
  store i8 1, ptr %7, align 1, !tbaa !7
  %36 = load i8, ptr %7, align 1, !tbaa !7, !range !9, !noundef !10
  %37 = trunc i8 %36 to i1
  %38 = zext i1 %37 to i8
  store i8 %38, ptr %7, align 1, !tbaa !7
  br label %39

39:                                               ; preds = %35
  br label %40

40:                                               ; preds = %39
  br label %41

41:                                               ; preds = %40
  store i32 -1, ptr %6, align 4, !tbaa !3
  br label %47

42:                                               ; No predecessors!
  br label %43

43:                                               ; preds = %42
  br label %44

44:                                               ; preds = %43
  br label %45

45:                                               ; preds = %44
  br label %46

46:                                               ; preds = %45, %23
  br label %47

47:                                               ; preds = %46, %41
  br label %48

48:                                               ; preds = %47, %15
  %49 = load i32, ptr %6, align 4, !tbaa !3
  call void @llvm.lifetime.end.p0(i64 1, ptr %7) #5
  call void @llvm.lifetime.end.p0(i64 4, ptr %6) #5
  call void @llvm.lifetime.end.p0(i64 8, ptr %5) #5
  ret i32 %49
}