; Function Attrs: nounwind uwtable
define internal range(i32 -1, 1) i32 @H5ES__close_cb(ptr noundef %0, ptr readnone captures(none) %1) #0 {
  %3 = load i8, ptr @H5ES_init_g, align 1, !tbaa !3, !range !7, !noundef !8
  %4 = trunc nuw i8 %3 to i1
  %5 = load i8, ptr @H5_libterm_g, align 1, !range !7
  %6 = trunc nuw i8 %5 to i1
  %7 = xor i1 %6, true
  %8 = select i1 %4, i1 true, i1 %7
  br i1 %8, label %9, label %16, !prof !9

9:                                                ; preds = %2
  %10 = tail call fastcc i32 @H5ES__close(ptr noundef %0)
  %11 = icmp slt i32 %10, 0
  br i1 %11, label %12, label %16

12:                                               ; preds = %9
  %13 = load i64, ptr @H5E_EVENTSET_g, align 8, !tbaa !10
  %14 = load i64, ptr @H5E_CLOSEERROR_g, align 8, !tbaa !10
  %15 = tail call i32 (ptr, ptr, i32, i64, i64, ptr, ...) @H5E_printf_stack(ptr noundef nonnull @.str, ptr noundef nonnull @__func__.H5ES__close_cb, i32 noundef 206, i64 noundef %13, i64 noundef %14, ptr noundef nonnull @.str.12) #5
  br label %16

16:                                               ; preds = %12, %9, %2
  %.0 = phi i32 [ -1, %12 ], [ 0, %9 ], [ 0, %2 ]
  ret i32 %.0
}